; Function Attrs: mustprogress uwtable
define internal void @_ZNK12_GLOBAL__N_116itanium_demangle9ArrayType10printRightERNS0_12OutputBufferE(ptr noundef nonnull readonly align 8 captures(none) dereferenceable(32) %0, ptr noundef nonnull align 8 dereferenceable(44) %1) unnamed_addr #2 align 2 {
  %3 = getelementptr inbounds nuw i8, ptr %1, i64 8
  %.val = load ptr, ptr %3, align 8
  %4 = getelementptr inbounds nuw i8, ptr %1, i64 16
  %.val8 = load i64, ptr %4, align 8, !tbaa !224
  %.not.i = icmp eq i64 %.val8, 0
  br i1 %.not.i, label %5, label %_ZNK12_GLOBAL__N_116itanium_demangle12OutputBuffer4backEv.exit

5:                                                ; preds = %2
  tail call void (ptr, ...) @__abort_message(ptr noundef nonnull @.str.1, ptr noundef nonnull @.str.429, i32 noundef 200, ptr noundef nonnull @.str) #30
  unreachable

_ZNK12_GLOBAL__N_116itanium_demangle12OutputBuffer4backEv.exit: ; preds = %2
  %6 = getelementptr i8, ptr %.val, i64 %.val8
  %7 = getelementptr i8, ptr %6, i64 -1
  %8 = load i8, ptr %7, align 1, !tbaa !210
  %.not = icmp eq i8 %8, 93
  br i1 %.not, label %_ZN12_GLOBAL__N_116itanium_demangle12OutputBufferpLENSt3__117basic_string_viewIcNS2_11char_traitsIcEEEE.exit, label %9

9:                                                ; preds = %_ZNK12_GLOBAL__N_116itanium_demangle12OutputBuffer4backEv.exit
  %10 = add i64 %.val8, 1
  %11 = getelementptr inbounds nuw i8, ptr %1, i64 24
  %12 = load i64, ptr %11, align 8, !tbaa !225
  %13 = icmp ugt i64 %10, %12
  br i1 %13, label %14, label %_ZN12_GLOBAL__N_116itanium_demangle12OutputBuffer4growEm.exit.i

14:                                               ; preds = %9
  %15 = add i64 %.val8, 993
  %16 = shl i64 %12, 1
  %spec.select.i.i = tail call i64 @llvm.umax.i64(i64 %16, i64 %15)
  store i64 %spec.select.i.i, ptr %11, align 8, !tbaa !225
  %17 = tail call ptr @realloc(ptr noundef nonnull %.val, i64 noundef %spec.select.i.i) #34
  store ptr %17, ptr %3, align 8, !tbaa !222
  %18 = icmp eq ptr %17, null
  br i1 %18, label %19, label %._ZN12_GLOBAL__N_116itanium_demangle12OutputBuffer4growEm.exit_crit_edge4.i

._ZN12_GLOBAL__N_116itanium_demangle12OutputBuffer4growEm.exit_crit_edge4.i: ; preds = %14
  %.pre5.i = load i64, ptr %4, align 8, !tbaa !224
  br label %_ZN12_GLOBAL__N_116itanium_demangle12OutputBuffer4growEm.exit.i

19:                                               ; preds = %14
  tail call void @abort() #33
  unreachable

_ZN12_GLOBAL__N_116itanium_demangle12OutputBuffer4growEm.exit.i: ; preds = %9, %._ZN12_GLOBAL__N_116itanium_demangle12OutputBuffer4growEm.exit_crit_edge4.i
  %20 = phi i64 [ %.pre5.i, %._ZN12_GLOBAL__N_116itanium_demangle12OutputBuffer4growEm.exit_crit_edge4.i ], [ %.val8, %9 ]
  %21 = phi ptr [ %17, %._ZN12_GLOBAL__N_116itanium_demangle12OutputBuffer4growEm.exit_crit_edge4.i ], [ %.val, %9 ]
  %22 = getelementptr inbounds nuw i8, ptr %21, i64 %20
  store i8 32, ptr %22, align 1
  %23 = load i64, ptr %4, align 8, !tbaa !224
  %24 = add i64 %23, 1
  store i64 %24, ptr %4, align 8, !tbaa !224
  br label %_ZN12_GLOBAL__N_116itanium_demangle12OutputBufferpLENSt3__117basic_string_viewIcNS2_11char_traitsIcEEEE.exit

_ZN12_GLOBAL__N_116itanium_demangle12OutputBufferpLENSt3__117basic_string_viewIcNS2_11char_traitsIcEEEE.exit: ; preds = %_ZNK12_GLOBAL__N_116itanium_demangle12OutputBuffer4backEv.exit, %_ZN12_GLOBAL__N_116itanium_demangle12OutputBuffer4growEm.exit.i
  %25 = phi i64 [ %.val8, %_ZNK12_GLOBAL__N_116itanium_demangle12OutputBuffer4backEv.exit ], [ %24, %_ZN12_GLOBAL__N_116itanium_demangle12OutputBuffer4growEm.exit.i ]
  %26 = add i64 %25, 1
  %27 = getelementptr inbounds nuw i8, ptr %1, i64 24
  %28 = load i64, ptr %27, align 8, !tbaa !225
  %29 = icmp ugt i64 %26, %28
  br i1 %29, label %30, label %._ZN12_GLOBAL__N_116itanium_demangle12OutputBuffer4growEm.exit_crit_edge.i11

._ZN12_GLOBAL__N_116itanium_demangle12OutputBuffer4growEm.exit_crit_edge.i11: ; preds = %_ZN12_GLOBAL__N_116itanium_demangle12OutputBufferpLENSt3__117basic_string_viewIcNS2_11char_traitsIcEEEE.exit
  %.pre.i13 = load ptr, ptr %3, align 8, !tbaa !222
  br label %_ZN12_GLOBAL__N_116itanium_demangle12OutputBuffer4growEm.exit.i14

30:                                               ; preds = %_ZN12_GLOBAL__N_116itanium_demangle12OutputBufferpLENSt3__117basic_string_viewIcNS2_11char_traitsIcEEEE.exit
  %31 = add i64 %25, 993
  %32 = shl i64 %28, 1
  %spec.select.i.i15 = tail call i64 @llvm.umax.i64(i64 %32, i64 %31)
  store i64 %spec.select.i.i15, ptr %27, align 8, !tbaa !225
  %33 = load ptr, ptr %3, align 8, !tbaa !222
  %34 = tail call ptr @realloc(ptr noundef %33, i64 noundef %spec.select.i.i15) #34
  store ptr %34, ptr %3, align 8, !tbaa !222
  %35 = icmp eq ptr %34, null
  br i1 %35, label %36, label %._ZN12_GLOBAL__N_116itanium_demangle12OutputBuffer4growEm.exit_crit_edge4.i16

._ZN12_GLOBAL__N_116itanium_demangle12OutputBuffer4growEm.exit_crit_edge4.i16: ; preds = %30
  %.pre5.i17 = load i64, ptr %4, align 8, !tbaa !224
  br label %_ZN12_GLOBAL__N_116itanium_demangle12OutputBuffer4growEm.exit.i14

36:                                               ; preds = %30
  tail call void @abort() #33
  unreachable

_ZN12_GLOBAL__N_116itanium_demangle12OutputBuffer4growEm.exit.i14: ; preds = %._ZN12_GLOBAL__N_116itanium_demangle12OutputBuffer4growEm.exit_crit_edge4.i16, %._ZN12_GLOBAL__N_116itanium_demangle12OutputBuffer4growEm.exit_crit_edge.i11
  %37 = phi i64 [ %25, %._ZN12_GLOBAL__N_116itanium_demangle12OutputBuffer4growEm.exit_crit_edge.i11 ], [ %.pre5.i17, %._ZN12_GLOBAL__N_116itanium_demangle12OutputBuffer4growEm.exit_crit_edge4.i16 ]
  %38 = phi ptr [ %.pre.i13, %._ZN12_GLOBAL__N_116itanium_demangle12OutputBuffer4growEm.exit_crit_edge.i11 ], [ %34, %._ZN12_GLOBAL__N_116itanium_demangle12OutputBuffer4growEm.exit_crit_edge4.i16 ]
  %39 = getelementptr inbounds nuw i8, ptr %38, i64 %37
  store i8 91, ptr %39, align 1
  %40 = load i64, ptr %4, align 8, !tbaa !224
  %41 = add i64 %40, 1
  store i64 %41, ptr %4, align 8, !tbaa !224
  %42 = getelementptr inbounds nuw i8, ptr %0, i64 24
  %43 = load ptr, ptr %42, align 8, !tbaa !262
  %.not7 = icmp eq ptr %43, null
  br i1 %.not7, label %_ZNK12_GLOBAL__N_116itanium_demangle4Node5printERNS0_12OutputBufferE.exit, label %44

44:                                               ; preds = %_ZN12_GLOBAL__N_116itanium_demangle12OutputBuffer4growEm.exit.i14
  %45 = load ptr, ptr %1, align 8, !tbaa !214
  %46 = getelementptr inbounds nuw i8, ptr %45, i64 16
  %47 = load ptr, ptr %46, align 8
  tail call void %47(ptr noundef nonnull align 8 dereferenceable(44) %1, ptr noundef nonnull align 8 dereferenceable(11) %43)
  %48 = getelementptr inbounds nuw i8, ptr %43, i64 9
  %49 = load i16, ptr %48, align 1
  %.mask3.i = and i16 %49, 192
  %.not.i19 = icmp eq i16 %.mask3.i, 64
  br i1 %.not.i19, label %_ZNK12_GLOBAL__N_116itanium_demangle4Node5printERNS0_12OutputBufferE.exit, label %50

50:                                               ; preds = %44
  %51 = load ptr, ptr %1, align 8, !tbaa !214
  %52 = getelementptr inbounds nuw i8, ptr %51, i64 24
  %53 = load ptr, ptr %52, align 8
  tail call void %53(ptr noundef nonnull align 8 dereferenceable(44) %1, ptr noundef nonnull align 8 dereferenceable(11) %43)
  br label %_ZNK12_GLOBAL__N_116itanium_demangle4Node5printERNS0_12OutputBufferE.exit

_ZNK12_GLOBAL__N_116itanium_demangle4Node5printERNS0_12OutputBufferE.exit: ; preds = %_ZN12_GLOBAL__N_116itanium_demangle12OutputBuffer4growEm.exit.i14, %44, %50
  %54 = load i64, ptr %4, align 8, !tbaa !224
  %55 = add i64 %54, 1
  %56 = load i64, ptr %27, align 8, !tbaa !225
  %57 = icmp ugt i64 %55, %56
  br i1 %57, label %58, label %._ZN12_GLOBAL__N_116itanium_demangle12OutputBuffer4growEm.exit_crit_edge.i21

._ZN12_GLOBAL__N_116itanium_demangle12OutputBuffer4growEm.exit_crit_edge.i21: ; preds = %_ZNK12_GLOBAL__N_116itanium_demangle4Node5printERNS0_12OutputBufferE.exit
  %.pre.i23 = load ptr, ptr %3, align 8, !tbaa !222
  br label %_ZN12_GLOBAL__N_116itanium_demangle12OutputBuffer4growEm.exit.i24

58:                                               ; preds = %_ZNK12_GLOBAL__N_116itanium_demangle4Node5printERNS0_12OutputBufferE.exit
  %59 = add i64 %54, 993
  %60 = shl i64 %56, 1
  %spec.select.i.i25 = tail call i64 @llvm.umax.i64(i64 %60, i64 %59)
  store i64 %spec.select.i.i25, ptr %27, align 8, !tbaa !225
  %61 = load ptr, ptr %3, align 8, !tbaa !222
  %62 = tail call ptr @realloc(ptr noundef %61, i64 noundef %spec.select.i.i25) #34
  store ptr %62, ptr %3, align 8, !tbaa !222
  %63 = icmp eq ptr %62, null
  br i1 %63, label %64, label %._ZN12_GLOBAL__N_116itanium_demangle12OutputBuffer4growEm.exit_crit_edge4.i26

._ZN12_GLOBAL__N_116itanium_demangle12OutputBuffer4growEm.exit_crit_edge4.i26: ; preds = %58
  %.pre5.i27 = load i64, ptr %4, align 8, !tbaa !224
  br label %_ZN12_GLOBAL__N_116itanium_demangle12OutputBuffer4growEm.exit.i24

64:                                               ; preds = %58
  tail call void @abort() #33
  unreachable

_ZN12_GLOBAL__N_116itanium_demangle12OutputBuffer4growEm.exit.i24: ; preds = %._ZN12_GLOBAL__N_116itanium_demangle12OutputBuffer4growEm.exit_crit_edge4.i26, %._ZN12_GLOBAL__N_116itanium_demangle12OutputBuffer4growEm.exit_crit_edge.i21
  %65 = phi i64 [ %54, %._ZN12_GLOBAL__N_116itanium_demangle12OutputBuffer4growEm.exit_crit_edge.i21 ], [ %.pre5.i27, %._ZN12_GLOBAL__N_116itanium_demangle12OutputBuffer4growEm.exit_crit_edge4.i26 ]
  %66 = phi ptr [ %.pre.i23, %._ZN12_GLOBAL__N_116itanium_demangle12OutputBuffer4growEm.exit_crit_edge.i21 ], [ %62, %._ZN12_GLOBAL__N_116itanium_demangle12OutputBuffer4growEm.exit_crit_edge4.i26 ]
  %67 = getelementptr inbounds nuw i8, ptr %66, i64 %65
  store i8 93, ptr %67, align 1
  %68 = load i64, ptr %4, align 8, !tbaa !224
  %69 = add i64 %68, 1
  store i64 %69, ptr %4, align 8, !tbaa !224
  %70 = getelementptr inbounds nuw i8, ptr %0, i64 16
  %71 = load ptr, ptr %70, align 8, !tbaa !260
  %72 = load ptr, ptr %1, align 8, !tbaa !214
  %73 = getelementptr inbounds nuw i8, ptr %72, i64 24
  %74 = load ptr, ptr %73, align 8
  tail call void %74(ptr noundef nonnull align 8 dereferenceable(44) %1, ptr noundef nonnull align 8 dereferenceable(11) %71)
  ret void
}